target datalayout = "e-m:e-p270:32:32-p271:32:32-p272:64:64-i64:64-i128:128-f80:128-n8:16:32:64-S128"
target triple = "x86_64-unknown-linux-gnu"

%"class.std::__cxx11::basic_string" = type { %"struct.std::__cxx11::basic_string<char>::_Alloc_hider", i64, %union.anon }
%"struct.std::__cxx11::basic_string<char>::_Alloc_hider" = type { ptr }
%union.anon = type { i64, [8 x i8] }
%"class.Assimp::LWOImporter" = type <{ %"class.Assimp::BaseImporter", i8, i8, i8, [5 x i8], ptr, ptr, ptr, ptr, ptr, %"class.std::vector", %"class.std::vector.6", ptr, i32, [4 x i8], ptr, i8, [3 x i8], i32, %"class.std::__cxx11::basic_string", i8, [7 x i8] }>
%"class.Assimp::BaseImporter" = type { ptr, double, double, %"class.std::__cxx11::basic_string", %"class.std::__exception_ptr::exception_ptr", ptr }
%"class.std::__exception_ptr::exception_ptr" = type { ptr }
%"class.std::vector" = type { %"struct.std::_Vector_base" }
%"struct.std::_Vector_base" = type { %"struct.std::_Vector_base<Assimp::LWO::Clip, std::allocator<Assimp::LWO::Clip>>::_Vector_impl" }
%"struct.std::_Vector_base<Assimp::LWO::Clip, std::allocator<Assimp::LWO::Clip>>::_Vector_impl" = type { %"struct.std::_Vector_base<Assimp::LWO::Clip, std::allocator<Assimp::LWO::Clip>>::_Vector_impl_data" }
%"struct.std::_Vector_base<Assimp::LWO::Clip, std::allocator<Assimp::LWO::Clip>>::_Vector_impl_data" = type { ptr, ptr, ptr }
%"class.std::vector.6" = type { %"struct.std::_Vector_base.7" }
%"struct.std::_Vector_base.7" = type { %"struct.std::_Vector_base<Assimp::LWO::Envelope, std::allocator<Assimp::LWO::Envelope>>::_Vector_impl" }
%"struct.std::_Vector_base<Assimp::LWO::Envelope, std::allocator<Assimp::LWO::Envelope>>::_Vector_impl" = type { %"struct.std::_Vector_base<Assimp::LWO::Envelope, std::allocator<Assimp::LWO::Envelope>>::_Vector_impl_data" }
%"struct.std::_Vector_base<Assimp::LWO::Envelope, std::allocator<Assimp::LWO::Envelope>>::_Vector_impl_data" = type { ptr, ptr, ptr }
%"struct.Assimp::IFF::ChunkHeader" = type { i32, i32 }

@_ZTI17DeadlyImportError = linkonce_odr constant { ptr, ptr, ptr } { ptr getelementptr inbounds (ptr, ptr @_ZTVN10__cxxabiv120__si_class_type_infoE, i64 2), ptr @_ZTS17DeadlyImportError, ptr @_ZTI15DeadlyErrorBase }, comdat, align 8
@.str.49 = private unnamed_addr constant [36 x i8] c"LWO3: cannot read length; LoadNodes\00", align 1

; Function Attrs: mustprogress nounwind uwtable
define linkonce_odr void @_ZSt4swapIhENSt9enable_ifIXsr6__and_ISt6__not_ISt15__is_tuple_likeIT_EESt21is_move_constructibleIS3_ESt18is_move_assignableIS3_EEE5valueEvE4typeERS3_SC_(ptr noundef nonnull align 1 dereferenceable(1) %__a, ptr noundef nonnull align 1 dereferenceable(1) %__b) #0 comdat {
entry:
  %__a.addr = alloca ptr, align 8
  %__b.addr = alloca ptr, align 8
  %__tmp = alloca i8, align 1
  store ptr %__a, ptr %__a.addr, align 8
  store ptr %__b, ptr %__b.addr, align 8
  %0 = load ptr, ptr %__a.addr, align 8
  %1 = load i8, ptr %0, align 1
  store i8 %1, ptr %__tmp, align 1
  %2 = load ptr, ptr %__b.addr, align 8
  %3 = load i8, ptr %2, align 1
  %4 = load ptr, ptr %__a.addr, align 8
  store i8 %3, ptr %4, align 1
  %5 = load i8, ptr %__tmp, align 1
  %6 = load ptr, ptr %__b.addr, align 8
  store i8 %5, ptr %6, align 1
  ret void
}

; Function Attrs: mustprogress nounwind uwtable
define linkonce_odr hidden void @_ZN6Assimp8ByteSwap5Swap4EPv(ptr noundef %_szOut) #0 comdat align 2 {
entry:
  %_szOut.addr = alloca ptr, align 8
  %szOut = alloca ptr, align 8
  store ptr %_szOut, ptr %_szOut.addr, align 8
  %0 = load ptr, ptr %_szOut.addr, align 8
  store ptr %0, ptr %szOut, align 8
  %1 = load ptr, ptr %szOut, align 8
  %arrayidx = getelementptr inbounds i8, ptr %1, i64 0
  %2 = load ptr, ptr %szOut, align 8
  %arrayidx1 = getelementptr inbounds i8, ptr %2, i64 3
  call void @_ZSt4swapIhENSt9enable_ifIXsr6__and_ISt6__not_ISt15__is_tuple_likeIT_EESt21is_move_constructibleIS3_ESt18is_move_assignableIS3_EEE5valueEvE4typeERS3_SC_(ptr noundef nonnull align 1 dereferenceable(1) %arrayidx, ptr noundef nonnull align 1 dereferenceable(1) %arrayidx1) #14
  %3 = load ptr, ptr %szOut, align 8
  %arrayidx2 = getelementptr inbounds i8, ptr %3, i64 1
  %4 = load ptr, ptr %szOut, align 8
  %arrayidx3 = getelementptr inbounds i8, ptr %4, i64 2
  call void @_ZSt4swapIhENSt9enable_ifIXsr6__and_ISt6__not_ISt15__is_tuple_likeIT_EESt21is_move_constructibleIS3_ESt18is_move_assignableIS3_EEE5valueEvE4typeERS3_SC_(ptr noundef nonnull align 1 dereferenceable(1) %arrayidx2, ptr noundef nonnull align 1 dereferenceable(1) %arrayidx3) #14
  ret void
}

; Function Attrs: mustprogress nounwind uwtable
define linkonce_odr hidden i64 @_ZN6Assimp3IFF8LoadFormERPh(ptr noundef nonnull align 8 dereferenceable(8) %outFile) #0 comdat {
entry:
  %retval = alloca %"struct.Assimp::IFF::ChunkHeader", align 4
  %outFile.addr = alloca ptr, align 8
  store ptr %outFile, ptr %outFile.addr, align 8
  %0 = load ptr, ptr %outFile.addr, align 8
  %1 = load ptr, ptr %0, align 8
  %add.ptr = getelementptr inbounds i8, ptr %1, i64 4
  store ptr %add.ptr, ptr %0, align 8
  %length = getelementptr inbounds %"struct.Assimp::IFF::ChunkHeader", ptr %retval, i32 0, i32 1
  %2 = load ptr, ptr %outFile.addr, align 8
  %3 = load ptr, ptr %2, align 8
  call void @llvm.memcpy.p0.p0.i64(ptr align 4 %length, ptr align 1 %3, i64 4, i1 false)
  %4 = load ptr, ptr %outFile.addr, align 8
  %5 = load ptr, ptr %4, align 8
  %add.ptr1 = getelementptr inbounds i8, ptr %5, i64 4
  store ptr %add.ptr1, ptr %4, align 8
  %type = getelementptr inbounds %"struct.Assimp::IFF::ChunkHeader", ptr %retval, i32 0, i32 0
  %6 = load ptr, ptr %outFile.addr, align 8
  %7 = load ptr, ptr %6, align 8
  call void @llvm.memcpy.p0.p0.i64(ptr align 4 %type, ptr align 1 %7, i64 4, i1 false)
  %length2 = getelementptr inbounds %"struct.Assimp::IFF::ChunkHeader", ptr %retval, i32 0, i32 1
  call void @_ZN6Assimp8ByteSwap5Swap4EPv(ptr noundef %length2)
  %type3 = getelementptr inbounds %"struct.Assimp::IFF::ChunkHeader", ptr %retval, i32 0, i32 0
  call void @_ZN6Assimp8ByteSwap5Swap4EPv(ptr noundef %type3)
  %8 = load i64, ptr %retval, align 4
  ret i64 %8
}

; Function Attrs: mustprogress nounwind uwtable
define linkonce_odr hidden i64 @_ZN6Assimp3IFF9LoadChunkERPh(ptr noundef nonnull align 8 dereferenceable(8) %outFile) #0 comdat {
entry:
  %retval = alloca %"struct.Assimp::IFF::ChunkHeader", align 4
  %outFile.addr = alloca ptr, align 8
  store ptr %outFile, ptr %outFile.addr, align 8
  %type = getelementptr inbounds %"struct.Assimp::IFF::ChunkHeader", ptr %retval, i32 0, i32 0
  %0 = load ptr, ptr %outFile.addr, align 8
  %1 = load ptr, ptr %0, align 8
  call void @llvm.memcpy.p0.p0.i64(ptr align 4 %type, ptr align 1 %1, i64 4, i1 false)
  %2 = load ptr, ptr %outFile.addr, align 8
  %3 = load ptr, ptr %2, align 8
  %add.ptr = getelementptr inbounds i8, ptr %3, i64 4
  store ptr %add.ptr, ptr %2, align 8
  %length = getelementptr inbounds %"struct.Assimp::IFF::ChunkHeader", ptr %retval, i32 0, i32 1
  %4 = load ptr, ptr %outFile.addr, align 8
  %5 = load ptr, ptr %4, align 8
  call void @llvm.memcpy.p0.p0.i64(ptr align 4 %length, ptr align 1 %5, i64 4, i1 false)
  %6 = load ptr, ptr %outFile.addr, align 8
  %7 = load ptr, ptr %6, align 8
  %add.ptr1 = getelementptr inbounds i8, ptr %7, i64 4
  store ptr %add.ptr1, ptr %6, align 8
  %length2 = getelementptr inbounds %"struct.Assimp::IFF::ChunkHeader", ptr %retval, i32 0, i32 1
  call void @_ZN6Assimp8ByteSwap5Swap4EPv(ptr noundef %length2)
  %type3 = getelementptr inbounds %"struct.Assimp::IFF::ChunkHeader", ptr %retval, i32 0, i32 0
  call void @_ZN6Assimp8ByteSwap5Swap4EPv(ptr noundef %type3)
  %8 = load i64, ptr %retval, align 4
  ret i64 %8
}

; Function Attrs: mustprogress uwtable
define hidden void @_ZN6Assimp11LWOImporter9LoadNodesEj(ptr noundef nonnull align 8 dereferenceable(233) %this, i32 noundef %size) #2 align 2 personality ptr @__gxx_personality_v0 {
entry:
  %this.addr = alloca ptr, align 8
  %size.addr = alloca i32, align 4
  %end = alloca ptr, align 8
  %head = alloca %"struct.Assimp::IFF::ChunkHeader", align 4
  %bufOffset = alloca i32, align 4
  %ref.tmp = alloca %"struct.Assimp::IFF::ChunkHeader", align 4
  %exn.slot = alloca ptr, align 8
  %ehselector.slot = alloca i32, align 4
  %next = alloca ptr, align 8
  store ptr %this, ptr %this.addr, align 8
  store i32 %size, ptr %size.addr, align 4
  %this1 = load ptr, ptr %this.addr, align 8
  %mFileBuffer = getelementptr inbounds %"class.Assimp::LWOImporter", ptr %this1, i32 0, i32 12
  %0 = load ptr, ptr %mFileBuffer, align 8
  %1 = load i32, ptr %size.addr, align 4
  %idx.ext = zext i32 %1 to i64
  %add.ptr = getelementptr inbounds i8, ptr %0, i64 %idx.ext
  store ptr %add.ptr, ptr %end, align 8
  br label %while.body

while.body:                                       ; preds = %sw.epilog, %entry
  %mFileBuffer2 = getelementptr inbounds %"class.Assimp::LWOImporter", ptr %this1, i32 0, i32 12
  %2 = load ptr, ptr %mFileBuffer2, align 8
  %add.ptr3 = getelementptr inbounds i8, ptr %2, i64 8
  %3 = load ptr, ptr %end, align 8
  %cmp = icmp uge ptr %add.ptr3, %3
  br i1 %cmp, label %if.then, label %if.end

if.then:                                          ; preds = %while.body
  br label %while.end

if.end:                                           ; preds = %while.body
  %mFileBuffer4 = getelementptr inbounds %"class.Assimp::LWOImporter", ptr %this1, i32 0, i32 12
  %call = call i64 @_ZN6Assimp3IFF9LoadChunkERPh(ptr noundef nonnull align 8 dereferenceable(8) %mFileBuffer4)
  store i64 %call, ptr %head, align 4
  store i32 0, ptr %bufOffset, align 4
  %type = getelementptr inbounds %"struct.Assimp::IFF::ChunkHeader", ptr %head, i32 0, i32 0
  %4 = load i32, ptr %type, align 4
  %cmp5 = icmp eq i32 %4, 1179603533
  br i1 %cmp5, label %if.then6, label %if.end11

if.then6:                                         ; preds = %if.end
  %mFileBuffer7 = getelementptr inbounds %"class.Assimp::LWOImporter", ptr %this1, i32 0, i32 12
  %5 = load ptr, ptr %mFileBuffer7, align 8
  %add.ptr8 = getelementptr inbounds i8, ptr %5, i64 -8
  store ptr %add.ptr8, ptr %mFileBuffer7, align 8
  %mFileBuffer9 = getelementptr inbounds %"class.Assimp::LWOImporter", ptr %this1, i32 0, i32 12
  %call10 = call i64 @_ZN6Assimp3IFF8LoadFormERPh(ptr noundef nonnull align 8 dereferenceable(8) %mFileBuffer9)
  store i64 %call10, ptr %ref.tmp, align 4
  call void @llvm.memcpy.p0.p0.i64(ptr align 4 %head, ptr align 4 %ref.tmp, i64 8, i1 false)
  store i32 4, ptr %bufOffset, align 4
  br label %if.end11

if.end11:                                         ; preds = %if.then6, %if.end
  %mFileBuffer12 = getelementptr inbounds %"class.Assimp::LWOImporter", ptr %this1, i32 0, i32 12
  %6 = load ptr, ptr %mFileBuffer12, align 8
  %length = getelementptr inbounds %"struct.Assimp::IFF::ChunkHeader", ptr %head, i32 0, i32 1
  %7 = load i32, ptr %length, align 4
  %idx.ext13 = zext i32 %7 to i64
  %add.ptr14 = getelementptr inbounds i8, ptr %6, i64 %idx.ext13
  %8 = load ptr, ptr %end, align 8
  %cmp15 = icmp ugt ptr %add.ptr14, %8
  br i1 %cmp15, label %if.then16, label %if.end17

if.then16:                                        ; preds = %if.end11
  %exception = call ptr @__cxa_allocate_exception(i64 16) #14
  invoke void @_ZN17DeadlyImportErrorC2EPKc(ptr noundef nonnull align 8 dereferenceable(16) %exception, ptr noundef @.str.49)
          to label %invoke.cont unwind label %lpad

invoke.cont:                                      ; preds = %if.then16
  call void @__cxa_throw(ptr %exception, ptr @_ZTI17DeadlyImportError, ptr @_ZN17DeadlyImportErrorD2Ev) #16
  unreachable

lpad:                                             ; preds = %if.then16
  %9 = landingpad { ptr, i32 }
          cleanup
  %10 = extractvalue { ptr, i32 } %9, 0
  store ptr %10, ptr %exn.slot, align 8
  %11 = extractvalue { ptr, i32 } %9, 1
  store i32 %11, ptr %ehselector.slot, align 4
  call void @__cxa_free_exception(ptr %exception) #14
  br label %eh.resume

if.end17:                                         ; preds = %if.end11
  %mFileBuffer18 = getelementptr inbounds %"class.Assimp::LWOImporter", ptr %this1, i32 0, i32 12
  %12 = load ptr, ptr %mFileBuffer18, align 8
  %length19 = getelementptr inbounds %"struct.Assimp::IFF::ChunkHeader", ptr %head, i32 0, i32 1
  %13 = load i32, ptr %length19, align 4
  %idx.ext20 = zext i32 %13 to i64
  %add.ptr21 = getelementptr inbounds i8, ptr %12, i64 %idx.ext20
  store ptr %add.ptr21, ptr %next, align 8
  %14 = load i32, ptr %bufOffset, align 4
  %mFileBuffer22 = getelementptr inbounds %"class.Assimp::LWOImporter", ptr %this1, i32 0, i32 12
  %15 = load ptr, ptr %mFileBuffer22, align 8
  %idx.ext23 = sext i32 %14 to i64
  %add.ptr24 = getelementptr inbounds i8, ptr %15, i64 %idx.ext23
  store ptr %add.ptr24, ptr %mFileBuffer22, align 8
  %type25 = getelementptr inbounds %"struct.Assimp::IFF::ChunkHeader", ptr %head, i32 0, i32 0
  %16 = load i32, ptr %type25, align 4
  switch i32 %16, label %sw.epilog [
    i32 1314144583, label %sw.bb
  ]

sw.bb:                                            ; preds = %if.end17
  %length26 = getelementptr inbounds %"struct.Assimp::IFF::ChunkHeader", ptr %head, i32 0, i32 1
  %17 = load i32, ptr %length26, align 4
  call void @_ZN6Assimp11LWOImporter11LoadNodeTagEj(ptr noundef nonnull align 8 dereferenceable(233) %this1, i32 noundef %17)
  br label %sw.epilog

sw.epilog:                                        ; preds = %sw.bb, %if.end17
  %18 = load ptr, ptr %next, align 8
  %mFileBuffer27 = getelementptr inbounds %"class.Assimp::LWOImporter", ptr %this1, i32 0, i32 12
  store ptr %18, ptr %mFileBuffer27, align 8
  br label %while.body, !llvm.loop !21

while.end:                                        ; preds = %if.then
  ret void

eh.resume:                                        ; preds = %lpad
  %exn = load ptr, ptr %exn.slot, align 8
  %sel = load i32, ptr %ehselector.slot, align 4
  %lpad.val = insertvalue { ptr, i32 } poison, ptr %exn, 0
  %lpad.val28 = insertvalue { ptr, i32 } %lpad.val, i32 %sel, 1
  resume { ptr, i32 } %lpad.val28
}